; Function Attrs: mustprogress nofree norecurse nosync nounwind willreturn memory(read, argmem: readwrite, inaccessiblemem: none) uwtable
define internal range(i32 0, 4) i32 @smb_do(ptr noundef readonly captures(none) %0, ptr noundef writeonly captures(none) initializes((0, 1)) %1) #1 {
  %3 = getelementptr inbounds nuw i8, ptr %0, i64 32
  %4 = load ptr, ptr %3, align 8
  store i8 0, ptr %1, align 1
  %5 = getelementptr inbounds nuw i8, ptr %4, i64 848
  %6 = load ptr, ptr %5, align 8
  %.not = icmp eq ptr %6, null
  %. = select i1 %.not, i32 3, i32 0
  ret i32 %.
}